	.file	"listing2dot1.f90"
	.text
	.section	.rodata
.LC0:
	.string	"listing2dot1.f90"
.LC1:
	.ascii	"Hello World!"
	.text
	.type	MAIN__, @function
MAIN__:
.LFB0:
	.cfi_startproc
	pushq	%rbp
	.cfi_def_cfa_offset 16
	.cfi_offset 6, -16
	movq	%rsp, %rbp
	.cfi_def_cfa_register 6
	subq	$528, %rsp
	movq	$.LC0, -520(%rbp)
	movl	$2, -512(%rbp)
	movl	$128, -528(%rbp)
	movl	$6, -524(%rbp)
	leaq	-528(%rbp), %rax
	movq	%rax, %rdi
	call	_gfortran_st_write
	leaq	-528(%rbp), %rax
	movl	$12, %edx
	movl	$.LC1, %esi
	movq	%rax, %rdi
	call	_gfortran_transfer_character_write
	leaq	-528(%rbp), %rax
	movq	%rax, %rdi
	call	_gfortran_st_write_done
	nop
	leave
	.cfi_def_cfa 7, 8
	ret
	.cfi_endproc
.LFE0:
	.size	MAIN__, .-MAIN__
	.globl	main
	.type	main, @function
main:
.LFB1:
	.cfi_startproc
	pushq	%rbp
	.cfi_def_cfa_offset 16
	.cfi_offset 6, -16
	movq	%rsp, %rbp
	.cfi_def_cfa_register 6
	subq	$16, %rsp
	movl	%edi, -4(%rbp)
	movq	%rsi, -16(%rbp)
	movq	-16(%rbp), %rdx
	movl	-4(%rbp), %eax
	movq	%rdx, %rsi
	movl	%eax, %edi
	call	_gfortran_set_args
	movl	$options.1.0, %esi
	movl	$7, %edi
	call	_gfortran_set_options
	call	MAIN__
	movl	$0, %eax
	leave
	.cfi_def_cfa 7, 8
	ret
	.cfi_endproc
.LFE1:
	.size	main, .-main
	.section	.rodata
	.align 16
	.type	options.1.0, @object
	.size	options.1.0, 28
options.1.0:
	.long	2116
	.long	4095
	.long	0
	.long	1
	.long	1
	.long	0
	.long	31
	.ident	"GCC: (Homebrew GCC 11.2.0_3) 11.2.0"
	.section	.note.GNU-stack,"",@progbits
